; Function Attrs: mustprogress uwtable
define noundef zeroext i1 @_ZN7rocksdb22BlockCacheTierMetadata6LookupERKNS_5SliceEPNS_19LogicalBlockAddressE(ptr noundef nonnull align 8 dereferenceable(96) %0, ptr noundef nonnull align 8 dereferenceable(16) %1, ptr noundef writeonly %2) local_unnamed_addr #0 align 2 personality ptr @__gxx_personality_v0 {
  %4 = alloca %"struct.rocksdb::BlockInfo", align 8
  %5 = alloca ptr, align 8
  %6 = alloca ptr, align 8
  %7 = alloca ptr, align 8
  call void @llvm.lifetime.start.p0(i64 48, ptr nonnull %4) #15
  call void @_ZNK7rocksdb5Slice8ToStringB5cxx11Eb(ptr dead_on_unwind nonnull writable sret(%"class.std::__cxx11::basic_string") align 8 dereferenceable(44) %4, ptr noundef nonnull align 8 dereferenceable(16) %1, i1 noundef zeroext false)
  %8 = getelementptr inbounds nuw i8, ptr %4, i64 32
  store i32 0, ptr %8, align 8, !tbaa !96
  %.sroa.4.0..sroa_idx = getelementptr inbounds nuw i8, ptr %4, i64 36
  store i32 0, ptr %.sroa.4.0..sroa_idx, align 4, !tbaa !96
  %.sroa.5.0..sroa_idx = getelementptr inbounds nuw i8, ptr %4, i64 40
  store i32 0, ptr %.sroa.5.0..sroa_idx, align 8, !tbaa !96
  call void @llvm.lifetime.start.p0(i64 8, ptr nonnull %5) #15
  call void @llvm.lifetime.start.p0(i64 8, ptr nonnull %6) #15
  store ptr null, ptr %6, align 8, !tbaa !46
  %9 = getelementptr inbounds nuw i8, ptr %0, i64 56
  call void @llvm.lifetime.start.p0(i64 8, ptr nonnull %7) #15
  store ptr %4, ptr %7, align 8, !tbaa !93
  %10 = invoke noundef zeroext i1 @_ZN7rocksdb9HashTableIPNS_9BlockInfoENS_22BlockCacheTierMetadata4HashENS3_5EqualEE4FindERKS2_PS2_PPNS_4port7RWMutexE(ptr noundef nonnull align 8 dereferenceable(40) %9, ptr noundef nonnull align 8 dereferenceable(8) %7, ptr noundef nonnull %5, ptr noundef nonnull %6)
          to label %11 unwind label %12

11:                                               ; preds = %3
  call void @llvm.lifetime.end.p0(i64 8, ptr nonnull %7) #15
  br i1 %10, label %17, label %_ZN7rocksdb10ReadUnlockD2Ev.exit

12:                                               ; preds = %3
  %13 = landingpad { ptr, i32 }
          cleanup
  call void @llvm.lifetime.end.p0(i64 8, ptr nonnull %7) #15
  call void @llvm.lifetime.end.p0(i64 8, ptr nonnull %6) #15
  call void @llvm.lifetime.end.p0(i64 8, ptr nonnull %5) #15
  %14 = load ptr, ptr %4, align 8, !tbaa !69
  %15 = getelementptr inbounds nuw i8, ptr %4, i64 16
  %16 = icmp eq ptr %14, %15
  br i1 %16, label %_ZNKSt7__cxx1112basic_stringIcSt11char_traitsIcESaIcEE11_M_is_localEv.exit.thread.i.i.i11, label %_ZNKSt7__cxx1112basic_stringIcSt11char_traitsIcESaIcEE11_M_is_localEv.exit.i.i.i10

17:                                               ; preds = %11
  %18 = load ptr, ptr %6, align 8, !tbaa !46
  %.not = icmp eq ptr %2, null
  br i1 %.not, label %22, label %19

19:                                               ; preds = %17
  %20 = load ptr, ptr %5, align 8, !tbaa !93
  %21 = getelementptr inbounds nuw i8, ptr %20, i64 32
  call void @llvm.memcpy.p0.p0.i64(ptr noundef nonnull align 4 dereferenceable(12) %2, ptr noundef nonnull align 8 dereferenceable(12) %21, i64 12, i1 false), !tbaa.struct !95
  br label %22

22:                                               ; preds = %19, %17
  invoke void @_ZN7rocksdb4port7RWMutex10ReadUnlockEv(ptr noundef nonnull align 8 dereferenceable(56) %18)
          to label %_ZN7rocksdb10ReadUnlockD2Ev.exit unwind label %23

23:                                               ; preds = %22
  %24 = landingpad { ptr, i32 }
          catch ptr null
  %25 = extractvalue { ptr, i32 } %24, 0
  call void @__clang_call_terminate(ptr %25) #16
  unreachable

_ZN7rocksdb10ReadUnlockD2Ev.exit:                 ; preds = %22, %11
  call void @llvm.lifetime.end.p0(i64 8, ptr nonnull %6) #15
  call void @llvm.lifetime.end.p0(i64 8, ptr nonnull %5) #15
  %26 = load ptr, ptr %4, align 8, !tbaa !69
  %27 = getelementptr inbounds nuw i8, ptr %4, i64 16
  %28 = icmp eq ptr %26, %27
  br i1 %28, label %_ZNKSt7__cxx1112basic_stringIcSt11char_traitsIcESaIcEE11_M_is_localEv.exit.thread.i.i.i, label %_ZNKSt7__cxx1112basic_stringIcSt11char_traitsIcESaIcEE11_M_is_localEv.exit.i.i.i

_ZNKSt7__cxx1112basic_stringIcSt11char_traitsIcESaIcEE11_M_is_localEv.exit.thread.i.i.i: ; preds = %_ZN7rocksdb10ReadUnlockD2Ev.exit
  %29 = getelementptr inbounds nuw i8, ptr %4, i64 8
  %30 = load i64, ptr %29, align 8, !tbaa !64
  %31 = icmp ult i64 %30, 16
  call void @llvm.assume(i1 %31)
  br label %_ZN7rocksdb9BlockInfoD2Ev.exit

_ZNKSt7__cxx1112basic_stringIcSt11char_traitsIcESaIcEE11_M_is_localEv.exit.i.i.i: ; preds = %_ZN7rocksdb10ReadUnlockD2Ev.exit
  %32 = load i64, ptr %27, align 8, !tbaa !65
  %33 = add i64 %32, 1
  call void @_ZdlPvm(ptr noundef %26, i64 noundef %33) #17
  br label %_ZN7rocksdb9BlockInfoD2Ev.exit

_ZN7rocksdb9BlockInfoD2Ev.exit:                   ; preds = %_ZNKSt7__cxx1112basic_stringIcSt11char_traitsIcESaIcEE11_M_is_localEv.exit.thread.i.i.i, %_ZNKSt7__cxx1112basic_stringIcSt11char_traitsIcESaIcEE11_M_is_localEv.exit.i.i.i
  call void @llvm.lifetime.end.p0(i64 48, ptr nonnull %4) #15
  ret i1 %10

_ZNKSt7__cxx1112basic_stringIcSt11char_traitsIcESaIcEE11_M_is_localEv.exit.thread.i.i.i11: ; preds = %12
  %34 = getelementptr inbounds nuw i8, ptr %4, i64 8
  %35 = load i64, ptr %34, align 8, !tbaa !64
  %36 = icmp ult i64 %35, 16
  call void @llvm.assume(i1 %36)
  br label %_ZN7rocksdb9BlockInfoD2Ev.exit12

_ZNKSt7__cxx1112basic_stringIcSt11char_traitsIcESaIcEE11_M_is_localEv.exit.i.i.i10: ; preds = %12
  %37 = load i64, ptr %15, align 8, !tbaa !65
  %38 = add i64 %37, 1
  call void @_ZdlPvm(ptr noundef %14, i64 noundef %38) #17
  br label %_ZN7rocksdb9BlockInfoD2Ev.exit12

_ZN7rocksdb9BlockInfoD2Ev.exit12:                 ; preds = %_ZNKSt7__cxx1112basic_stringIcSt11char_traitsIcESaIcEE11_M_is_localEv.exit.thread.i.i.i11, %_ZNKSt7__cxx1112basic_stringIcSt11char_traitsIcESaIcEE11_M_is_localEv.exit.i.i.i10
  call void @llvm.lifetime.end.p0(i64 48, ptr nonnull %4) #15
  resume { ptr, i32 } %13
}